target datalayout = "e-m:e-p270:32:32-p271:32:32-p272:64:64-i64:64-i128:128-f80:128-n8:16:32:64-S128"
target triple = "x86_64-pc-linux-gnu"

%class.SubAllocator = type { i64, [38 x i8], [128 x i8], i8, ptr, ptr, ptr, [38 x %"struct.SubAllocator::RAR_NODE"], ptr, ptr, ptr, ptr }
%"struct.SubAllocator::RAR_NODE" = type { ptr }

; Function Attrs: mustprogress nounwind uwtable
define void @_ZN12SubAllocator16InitSubAllocatorEv(ptr noundef nonnull align 8 dereferenceable(536) %0) #1 align 2 {
  %2 = alloca ptr, align 8
  %3 = alloca i32, align 4
  %4 = alloca i32, align 4
  %5 = alloca i32, align 4
  %6 = alloca i32, align 4
  %7 = alloca i32, align 4
  %8 = alloca i32, align 4
  store ptr %0, ptr %2, align 8
  %9 = load ptr, ptr %2, align 8
  %10 = getelementptr inbounds %class.SubAllocator, ptr %9, i32 0, i32 7
  %11 = getelementptr inbounds [38 x %"struct.SubAllocator::RAR_NODE"], ptr %10, i64 0, i64 0
  call void @llvm.memset.p0.i64(ptr align 8 %11, i8 0, i64 304, i1 false)
  %12 = getelementptr inbounds %class.SubAllocator, ptr %9, i32 0, i32 4
  %13 = load ptr, ptr %12, align 8
  %14 = getelementptr inbounds %class.SubAllocator, ptr %9, i32 0, i32 8
  store ptr %13, ptr %14, align 8
  %15 = getelementptr inbounds %class.SubAllocator, ptr %9, i32 0, i32 0
  %16 = load i64, ptr %15, align 8
  %17 = sdiv i64 %16, 8
  %18 = sdiv i64 %17, 12
  %19 = mul nsw i64 %18, 7
  %20 = mul nsw i64 12, %19
  %21 = trunc i64 %20 to i32
  store i32 %21, ptr %5, align 4
  %22 = load i32, ptr %5, align 4
  %23 = udiv i32 %22, 12
  %24 = mul i32 %23, 20
  store i32 %24, ptr %6, align 4
  %25 = getelementptr inbounds %class.SubAllocator, ptr %9, i32 0, i32 0
  %26 = load i64, ptr %25, align 8
  %27 = load i32, ptr %5, align 4
  %28 = zext i32 %27 to i64
  %29 = sub nsw i64 %26, %28
  %30 = trunc i64 %29 to i32
  store i32 %30, ptr %7, align 4
  %31 = load i32, ptr %7, align 4
  %32 = udiv i32 %31, 12
  %33 = mul i32 %32, 20
  %34 = add i32 %33, 20
  store i32 %34, ptr %8, align 4
  %35 = getelementptr inbounds %class.SubAllocator, ptr %9, i32 0, i32 4
  %36 = load ptr, ptr %35, align 8
  %37 = load i32, ptr %8, align 4
  %38 = zext i32 %37 to i64
  %39 = getelementptr inbounds i8, ptr %36, i64 %38
  %40 = getelementptr inbounds %class.SubAllocator, ptr %9, i32 0, i32 9
  store ptr %39, ptr %40, align 8
  %41 = getelementptr inbounds %class.SubAllocator, ptr %9, i32 0, i32 5
  store ptr %39, ptr %41, align 8
  %42 = getelementptr inbounds %class.SubAllocator, ptr %9, i32 0, i32 4
  %43 = load ptr, ptr %42, align 8
  %44 = load i32, ptr %7, align 4
  %45 = zext i32 %44 to i64
  %46 = getelementptr inbounds i8, ptr %43, i64 %45
  %47 = getelementptr inbounds %class.SubAllocator, ptr %9, i32 0, i32 11
  store ptr %46, ptr %47, align 8
  %48 = getelementptr inbounds %class.SubAllocator, ptr %9, i32 0, i32 5
  %49 = load ptr, ptr %48, align 8
  %50 = load i32, ptr %6, align 4
  %51 = zext i32 %50 to i64
  %52 = getelementptr inbounds i8, ptr %49, i64 %51
  %53 = getelementptr inbounds %class.SubAllocator, ptr %9, i32 0, i32 6
  store ptr %52, ptr %53, align 8
  store i32 0, ptr %3, align 4
  store i32 1, ptr %4, align 4
  br label %54

54:                                               ; preds = %64, %1
  %55 = load i32, ptr %3, align 4
  %56 = icmp slt i32 %55, 4
  br i1 %56, label %57, label %69

57:                                               ; preds = %54
  %58 = load i32, ptr %4, align 4
  %59 = trunc i32 %58 to i8
  %60 = getelementptr inbounds %class.SubAllocator, ptr %9, i32 0, i32 1
  %61 = load i32, ptr %3, align 4
  %62 = sext i32 %61 to i64
  %63 = getelementptr inbounds [38 x i8], ptr %60, i64 0, i64 %62
  store i8 %59, ptr %63, align 1
  br label %64

64:                                               ; preds = %57
  %65 = load i32, ptr %3, align 4
  %66 = add nsw i32 %65, 1
  store i32 %66, ptr %3, align 4
  %67 = load i32, ptr %4, align 4
  %68 = add nsw i32 %67, 1
  store i32 %68, ptr %4, align 4
  br label %54, !llvm.loop !6

69:                                               ; preds = %54
  %70 = load i32, ptr %4, align 4
  %71 = add nsw i32 %70, 1
  store i32 %71, ptr %4, align 4
  br label %72

72:                                               ; preds = %82, %69
  %73 = load i32, ptr %3, align 4
  %74 = icmp slt i32 %73, 8
  br i1 %74, label %75, label %87

75:                                               ; preds = %72
  %76 = load i32, ptr %4, align 4
  %77 = trunc i32 %76 to i8
  %78 = getelementptr inbounds %class.SubAllocator, ptr %9, i32 0, i32 1
  %79 = load i32, ptr %3, align 4
  %80 = sext i32 %79 to i64
  %81 = getelementptr inbounds [38 x i8], ptr %78, i64 0, i64 %80
  store i8 %77, ptr %81, align 1
  br label %82

82:                                               ; preds = %75
  %83 = load i32, ptr %3, align 4
  %84 = add nsw i32 %83, 1
  store i32 %84, ptr %3, align 4
  %85 = load i32, ptr %4, align 4
  %86 = add nsw i32 %85, 2
  store i32 %86, ptr %4, align 4
  br label %72, !llvm.loop !7

87:                                               ; preds = %72
  %88 = load i32, ptr %4, align 4
  %89 = add nsw i32 %88, 1
  store i32 %89, ptr %4, align 4
  br label %90

90:                                               ; preds = %100, %87
  %91 = load i32, ptr %3, align 4
  %92 = icmp slt i32 %91, 12
  br i1 %92, label %93, label %105

93:                                               ; preds = %90
  %94 = load i32, ptr %4, align 4
  %95 = trunc i32 %94 to i8
  %96 = getelementptr inbounds %class.SubAllocator, ptr %9, i32 0, i32 1
  %97 = load i32, ptr %3, align 4
  %98 = sext i32 %97 to i64
  %99 = getelementptr inbounds [38 x i8], ptr %96, i64 0, i64 %98
  store i8 %95, ptr %99, align 1
  br label %100

100:                                              ; preds = %93
  %101 = load i32, ptr %3, align 4
  %102 = add nsw i32 %101, 1
  store i32 %102, ptr %3, align 4
  %103 = load i32, ptr %4, align 4
  %104 = add nsw i32 %103, 3
  store i32 %104, ptr %4, align 4
  br label %90, !llvm.loop !8

105:                                              ; preds = %90
  %106 = load i32, ptr %4, align 4
  %107 = add nsw i32 %106, 1
  store i32 %107, ptr %4, align 4
  br label %108

108:                                              ; preds = %118, %105
  %109 = load i32, ptr %3, align 4
  %110 = icmp slt i32 %109, 38
  br i1 %110, label %111, label %123

111:                                              ; preds = %108
  %112 = load i32, ptr %4, align 4
  %113 = trunc i32 %112 to i8
  %114 = getelementptr inbounds %class.SubAllocator, ptr %9, i32 0, i32 1
  %115 = load i32, ptr %3, align 4
  %116 = sext i32 %115 to i64
  %117 = getelementptr inbounds [38 x i8], ptr %114, i64 0, i64 %116
  store i8 %113, ptr %117, align 1
  br label %118

118:                                              ; preds = %111
  %119 = load i32, ptr %3, align 4
  %120 = add nsw i32 %119, 1
  store i32 %120, ptr %3, align 4
  %121 = load i32, ptr %4, align 4
  %122 = add nsw i32 %121, 4
  store i32 %122, ptr %4, align 4
  br label %108, !llvm.loop !9

123:                                              ; preds = %108
  store i32 0, ptr %3, align 4
  store i32 0, ptr %4, align 4
  %124 = getelementptr inbounds %class.SubAllocator, ptr %9, i32 0, i32 3
  store i8 0, ptr %124, align 2
  br label %125

125:                                              ; preds = %147, %123
  %126 = load i32, ptr %4, align 4
  %127 = icmp slt i32 %126, 128
  br i1 %127, label %128, label %150

128:                                              ; preds = %125
  %129 = getelementptr inbounds %class.SubAllocator, ptr %9, i32 0, i32 1
  %130 = load i32, ptr %3, align 4
  %131 = sext i32 %130 to i64
  %132 = getelementptr inbounds [38 x i8], ptr %129, i64 0, i64 %131
  %133 = load i8, ptr %132, align 1
  %134 = zext i8 %133 to i32
  %135 = load i32, ptr %4, align 4
  %136 = add nsw i32 %135, 1
  %137 = icmp slt i32 %134, %136
  %138 = zext i1 %137 to i32
  %139 = load i32, ptr %3, align 4
  %140 = add nsw i32 %139, %138
  store i32 %140, ptr %3, align 4
  %141 = load i32, ptr %3, align 4
  %142 = trunc i32 %141 to i8
  %143 = getelementptr inbounds %class.SubAllocator, ptr %9, i32 0, i32 2
  %144 = load i32, ptr %4, align 4
  %145 = sext i32 %144 to i64
  %146 = getelementptr inbounds [128 x i8], ptr %143, i64 0, i64 %145
  store i8 %142, ptr %146, align 1
  br label %147

147:                                              ; preds = %128
  %148 = load i32, ptr %4, align 4
  %149 = add nsw i32 %148, 1
  store i32 %149, ptr %4, align 4
  br label %125, !llvm.loop !10

150:                                              ; preds = %125
  ret void
}