; Function Attrs: mustprogress nofree norecurse nosync nounwind memory(argmem: readwrite) uwtable
define void @_ZN12SubAllocator16InitSubAllocatorEv(ptr nocapture noundef nonnull align 8 dereferenceable(536) %0) local_unnamed_addr #6 align 2 {
  %2 = getelementptr inbounds i8, ptr %0, i64 200
  tail call void @llvm.memset.p0.i64(ptr noundef nonnull align 8 dereferenceable(304) %2, i8 0, i64 304, i1 false)
  %3 = getelementptr inbounds i8, ptr %0, i64 176
  %4 = load ptr, ptr %3, align 8
  %5 = getelementptr inbounds i8, ptr %0, i64 504
  store ptr %4, ptr %5, align 8
  %6 = load i64, ptr %0, align 8
  %7 = sdiv i64 %6, 96
  %8 = trunc i64 %7 to i32
  %9 = mul i32 %8, 84
  %10 = udiv i32 %9, 12
  %11 = mul i32 %10, 20
  %12 = trunc i64 %6 to i32
  %13 = sub i32 %12, %9
  %14 = udiv i32 %13, 12
  %15 = mul i32 %14, 20
  %16 = add i32 %15, 20
  %17 = zext i32 %16 to i64
  %18 = getelementptr inbounds i8, ptr %4, i64 %17
  %19 = getelementptr inbounds i8, ptr %0, i64 512
  store ptr %18, ptr %19, align 8
  %20 = getelementptr inbounds i8, ptr %0, i64 184
  store ptr %18, ptr %20, align 8
  %21 = zext i32 %13 to i64
  %22 = getelementptr inbounds i8, ptr %4, i64 %21
  %23 = getelementptr inbounds i8, ptr %0, i64 528
  store ptr %22, ptr %23, align 8
  %24 = zext i32 %11 to i64
  %25 = getelementptr inbounds i8, ptr %18, i64 %24
  %26 = getelementptr inbounds i8, ptr %0, i64 192
  store ptr %25, ptr %26, align 8
  %27 = getelementptr inbounds i8, ptr %0, i64 8
  br label %28

28:                                               ; preds = %1, %28
  %indvars.iv = phi i64 [ 0, %1 ], [ %indvars.iv.next, %28 ]
  %.03641 = phi i32 [ 1, %1 ], [ %31, %28 ]
  %29 = trunc i32 %.03641 to i8
  %30 = getelementptr inbounds [38 x i8], ptr %27, i64 0, i64 %indvars.iv
  store i8 %29, ptr %30, align 1
  %indvars.iv.next = add nuw nsw i64 %indvars.iv, 1
  %31 = add nuw nsw i32 %.03641, 1
  %exitcond.not = icmp eq i64 %indvars.iv.next, 4
  br i1 %exitcond.not, label %.lr.ph, label %28, !llvm.loop !6

.lr.ph:                                           ; preds = %28, %.lr.ph
  %indvars.iv65 = phi i64 [ %indvars.iv.next66, %.lr.ph ], [ 4, %28 ]
  %.13743 = phi i32 [ %34, %.lr.ph ], [ 6, %28 ]
  %32 = trunc i32 %.13743 to i8
  %33 = getelementptr inbounds [38 x i8], ptr %27, i64 0, i64 %indvars.iv65
  store i8 %32, ptr %33, align 1
  %indvars.iv.next66 = add nuw nsw i64 %indvars.iv65, 1
  %34 = add nuw nsw i32 %.13743, 2
  %exitcond68.not = icmp eq i64 %indvars.iv.next66, 8
  br i1 %exitcond68.not, label %.lr.ph49, label %.lr.ph, !llvm.loop !7

.lr.ph49:                                         ; preds = %.lr.ph, %.lr.ph49
  %indvars.iv69 = phi i64 [ %indvars.iv.next70, %.lr.ph49 ], [ 8, %.lr.ph ]
  %.23846 = phi i32 [ %37, %.lr.ph49 ], [ 15, %.lr.ph ]
  %35 = trunc i32 %.23846 to i8
  %36 = getelementptr inbounds [38 x i8], ptr %27, i64 0, i64 %indvars.iv69
  store i8 %35, ptr %36, align 1
  %indvars.iv.next70 = add nuw nsw i64 %indvars.iv69, 1
  %37 = add nuw nsw i32 %.23846, 3
  %exitcond72.not = icmp eq i64 %indvars.iv.next70, 12
  br i1 %exitcond72.not, label %.lr.ph56, label %.lr.ph49, !llvm.loop !8

.lr.ph56:                                         ; preds = %.lr.ph49, %.lr.ph56
  %indvars.iv73 = phi i64 [ %indvars.iv.next74, %.lr.ph56 ], [ 12, %.lr.ph49 ]
  %.33953.in = phi i32 [ %.33953, %.lr.ph56 ], [ %.23846, %.lr.ph49 ]
  %.33953 = add nuw nsw i32 %.33953.in, 4
  %38 = trunc i32 %.33953 to i8
  %39 = getelementptr inbounds [38 x i8], ptr %27, i64 0, i64 %indvars.iv73
  store i8 %38, ptr %39, align 1
  %indvars.iv.next74 = add nuw nsw i64 %indvars.iv73, 1
  %exitcond76.not = icmp eq i64 %indvars.iv.next74, 38
  br i1 %exitcond76.not, label %._crit_edge57, label %.lr.ph56, !llvm.loop !9

._crit_edge57:                                    ; preds = %.lr.ph56
  %40 = getelementptr inbounds i8, ptr %0, i64 174
  store i8 0, ptr %40, align 2
  %41 = getelementptr inbounds i8, ptr %0, i64 46
  br label %42

42:                                               ; preds = %._crit_edge57, %42
  %indvars.iv77 = phi i64 [ 0, %._crit_edge57 ], [ %indvars.iv.next78, %42 ]
  %.459 = phi i32 [ 0, %._crit_edge57 ], [ %49, %42 ]
  %43 = zext nneg i32 %.459 to i64
  %44 = getelementptr inbounds [38 x i8], ptr %27, i64 0, i64 %43
  %45 = load i8, ptr %44, align 1
  %indvars.iv.next78 = add nuw nsw i64 %indvars.iv77, 1
  %46 = zext i8 %45 to i64
  %47 = icmp uge i64 %indvars.iv77, %46
  %48 = zext i1 %47 to i32
  %49 = add nuw nsw i32 %.459, %48
  %50 = trunc i32 %49 to i8
  %51 = getelementptr inbounds [128 x i8], ptr %41, i64 0, i64 %indvars.iv77
  store i8 %50, ptr %51, align 1
  %exitcond80.not = icmp eq i64 %indvars.iv.next78, 128
  br i1 %exitcond80.not, label %52, label %42, !llvm.loop !10

52:                                               ; preds = %42
  ret void
}